Archive member included to satisfy reference by file (symbol)

c:/dev/gcc-arm-none-eabi-10.3-2021.10/bin/../lib/gcc/arm-none-eabi/10.3.1/../../../../arm-none-eabi/lib/thumb/v7e-m/nofp\libc_nano.a(lib_a-exit.o)
                              c:/dev/gcc-arm-none-eabi-10.3-2021.10/bin/../lib/gcc/arm-none-eabi/10.3.1/../../../../arm-none-eabi/lib/thumb/v7e-m/nofp/crt0.o (exit)
c:/dev/gcc-arm-none-eabi-10.3-2021.10/bin/../lib/gcc/arm-none-eabi/10.3.1/../../../../arm-none-eabi/lib/thumb/v7e-m/nofp\libc_nano.a(lib_a-impure.o)
                              c:/dev/gcc-arm-none-eabi-10.3-2021.10/bin/../lib/gcc/arm-none-eabi/10.3.1/../../../../arm-none-eabi/lib/thumb/v7e-m/nofp\libc_nano.a(lib_a-exit.o) (_global_impure_ptr)
c:/dev/gcc-arm-none-eabi-10.3-2021.10/bin/../lib/gcc/arm-none-eabi/10.3.1/../../../../arm-none-eabi/lib/thumb/v7e-m/nofp\libc_nano.a(lib_a-init.o)
                              c:/dev/gcc-arm-none-eabi-10.3-2021.10/bin/../lib/gcc/arm-none-eabi/10.3.1/../../../../arm-none-eabi/lib/thumb/v7e-m/nofp/crt0.o (__libc_init_array)
c:/dev/gcc-arm-none-eabi-10.3-2021.10/bin/../lib/gcc/arm-none-eabi/10.3.1/../../../../arm-none-eabi/lib/thumb/v7e-m/nofp\libc_nano.a(lib_a-memset.o)
                              c:/dev/gcc-arm-none-eabi-10.3-2021.10/bin/../lib/gcc/arm-none-eabi/10.3.1/../../../../arm-none-eabi/lib/thumb/v7e-m/nofp/crt0.o (memset)
c:/dev/gcc-arm-none-eabi-10.3-2021.10/bin/../lib/gcc/arm-none-eabi/10.3.1/../../../../arm-none-eabi/lib/thumb/v7e-m/nofp\libnosys.a(_exit.o)
                              c:/dev/gcc-arm-none-eabi-10.3-2021.10/bin/../lib/gcc/arm-none-eabi/10.3.1/../../../../arm-none-eabi/lib/thumb/v7e-m/nofp\libc_nano.a(lib_a-exit.o) (_exit)

Discarded input sections

 .text          0x00000000        0x0 c:/dev/gcc-arm-none-eabi-10.3-2021.10/bin/../lib/gcc/arm-none-eabi/10.3.1/thumb/v7e-m/nofp/crti.o
 .data          0x00000000        0x0 c:/dev/gcc-arm-none-eabi-10.3-2021.10/bin/../lib/gcc/arm-none-eabi/10.3.1/thumb/v7e-m/nofp/crti.o
 .bss           0x00000000        0x0 c:/dev/gcc-arm-none-eabi-10.3-2021.10/bin/../lib/gcc/arm-none-eabi/10.3.1/thumb/v7e-m/nofp/crti.o
 .data          0x00000000        0x4 c:/dev/gcc-arm-none-eabi-10.3-2021.10/bin/../lib/gcc/arm-none-eabi/10.3.1/thumb/v7e-m/nofp/crtbegin.o
 .rodata        0x00000000       0x24 c:/dev/gcc-arm-none-eabi-10.3-2021.10/bin/../lib/gcc/arm-none-eabi/10.3.1/thumb/v7e-m/nofp/crtbegin.o
 .text          0x00000000       0x7c c:/dev/gcc-arm-none-eabi-10.3-2021.10/bin/../lib/gcc/arm-none-eabi/10.3.1/../../../../arm-none-eabi/lib/thumb/v7e-m/nofp/crt0.o
 .data          0x00000000        0x0 c:/dev/gcc-arm-none-eabi-10.3-2021.10/bin/../lib/gcc/arm-none-eabi/10.3.1/../../../../arm-none-eabi/lib/thumb/v7e-m/nofp/crt0.o
 .bss           0x00000000        0x0 c:/dev/gcc-arm-none-eabi-10.3-2021.10/bin/../lib/gcc/arm-none-eabi/10.3.1/../../../../arm-none-eabi/lib/thumb/v7e-m/nofp/crt0.o
 .ARM.extab     0x00000000        0x0 c:/dev/gcc-arm-none-eabi-10.3-2021.10/bin/../lib/gcc/arm-none-eabi/10.3.1/../../../../arm-none-eabi/lib/thumb/v7e-m/nofp/crt0.o
 .ARM.exidx     0x00000000       0x10 c:/dev/gcc-arm-none-eabi-10.3-2021.10/bin/../lib/gcc/arm-none-eabi/10.3.1/../../../../arm-none-eabi/lib/thumb/v7e-m/nofp/crt0.o
 .ARM.attributes
                0x00000000       0x1c c:/dev/gcc-arm-none-eabi-10.3-2021.10/bin/../lib/gcc/arm-none-eabi/10.3.1/../../../../arm-none-eabi/lib/thumb/v7e-m/nofp/crt0.o
 .text          0x00000000        0x0 c:/dev/gcc-arm-none-eabi-10.3-2021.10/bin/../lib/gcc/arm-none-eabi/10.3.1/../../../../arm-none-eabi/lib/thumb/v7e-m/nofp\libc_nano.a(lib_a-exit.o)
 .data          0x00000000        0x0 c:/dev/gcc-arm-none-eabi-10.3-2021.10/bin/../lib/gcc/arm-none-eabi/10.3.1/../../../../arm-none-eabi/lib/thumb/v7e-m/nofp\libc_nano.a(lib_a-exit.o)
 .bss           0x00000000        0x0 c:/dev/gcc-arm-none-eabi-10.3-2021.10/bin/../lib/gcc/arm-none-eabi/10.3.1/../../../../arm-none-eabi/lib/thumb/v7e-m/nofp\libc_nano.a(lib_a-exit.o)
 .text.exit     0x00000000       0x28 c:/dev/gcc-arm-none-eabi-10.3-2021.10/bin/../lib/gcc/arm-none-eabi/10.3.1/../../../../arm-none-eabi/lib/thumb/v7e-m/nofp\libc_nano.a(lib_a-exit.o)
 .debug_frame   0x00000000       0x28 c:/dev/gcc-arm-none-eabi-10.3-2021.10/bin/../lib/gcc/arm-none-eabi/10.3.1/../../../../arm-none-eabi/lib/thumb/v7e-m/nofp\libc_nano.a(lib_a-exit.o)
 .ARM.attributes
                0x00000000       0x2e c:/dev/gcc-arm-none-eabi-10.3-2021.10/bin/../lib/gcc/arm-none-eabi/10.3.1/../../../../arm-none-eabi/lib/thumb/v7e-m/nofp\libc_nano.a(lib_a-exit.o)
 .text          0x00000000        0x0 c:/dev/gcc-arm-none-eabi-10.3-2021.10/bin/../lib/gcc/arm-none-eabi/10.3.1/../../../../arm-none-eabi/lib/thumb/v7e-m/nofp\libc_nano.a(lib_a-impure.o)
 .data          0x00000000        0x0 c:/dev/gcc-arm-none-eabi-10.3-2021.10/bin/../lib/gcc/arm-none-eabi/10.3.1/../../../../arm-none-eabi/lib/thumb/v7e-m/nofp\libc_nano.a(lib_a-impure.o)
 .bss           0x00000000        0x0 c:/dev/gcc-arm-none-eabi-10.3-2021.10/bin/../lib/gcc/arm-none-eabi/10.3.1/../../../../arm-none-eabi/lib/thumb/v7e-m/nofp\libc_nano.a(lib_a-impure.o)
 .data._impure_ptr
                0x00000000        0x4 c:/dev/gcc-arm-none-eabi-10.3-2021.10/bin/../lib/gcc/arm-none-eabi/10.3.1/../../../../arm-none-eabi/lib/thumb/v7e-m/nofp\libc_nano.a(lib_a-impure.o)
 .data.impure_data
                0x00000000       0x60 c:/dev/gcc-arm-none-eabi-10.3-2021.10/bin/../lib/gcc/arm-none-eabi/10.3.1/../../../../arm-none-eabi/lib/thumb/v7e-m/nofp\libc_nano.a(lib_a-impure.o)
 .rodata._global_impure_ptr
                0x00000000        0x4 c:/dev/gcc-arm-none-eabi-10.3-2021.10/bin/../lib/gcc/arm-none-eabi/10.3.1/../../../../arm-none-eabi/lib/thumb/v7e-m/nofp\libc_nano.a(lib_a-impure.o)
 .ARM.attributes
                0x00000000       0x2e c:/dev/gcc-arm-none-eabi-10.3-2021.10/bin/../lib/gcc/arm-none-eabi/10.3.1/../../../../arm-none-eabi/lib/thumb/v7e-m/nofp\libc_nano.a(lib_a-impure.o)
 .text          0x00000000        0x0 c:/dev/gcc-arm-none-eabi-10.3-2021.10/bin/../lib/gcc/arm-none-eabi/10.3.1/../../../../arm-none-eabi/lib/thumb/v7e-m/nofp\libc_nano.a(lib_a-init.o)
 .data          0x00000000        0x0 c:/dev/gcc-arm-none-eabi-10.3-2021.10/bin/../lib/gcc/arm-none-eabi/10.3.1/../../../../arm-none-eabi/lib/thumb/v7e-m/nofp\libc_nano.a(lib_a-init.o)
 .bss           0x00000000        0x0 c:/dev/gcc-arm-none-eabi-10.3-2021.10/bin/../lib/gcc/arm-none-eabi/10.3.1/../../../../arm-none-eabi/lib/thumb/v7e-m/nofp\libc_nano.a(lib_a-init.o)
 .text          0x00000000        0x0 c:/dev/gcc-arm-none-eabi-10.3-2021.10/bin/../lib/gcc/arm-none-eabi/10.3.1/../../../../arm-none-eabi/lib/thumb/v7e-m/nofp\libc_nano.a(lib_a-memset.o)
 .data          0x00000000        0x0 c:/dev/gcc-arm-none-eabi-10.3-2021.10/bin/../lib/gcc/arm-none-eabi/10.3.1/../../../../arm-none-eabi/lib/thumb/v7e-m/nofp\libc_nano.a(lib_a-memset.o)
 .bss           0x00000000        0x0 c:/dev/gcc-arm-none-eabi-10.3-2021.10/bin/../lib/gcc/arm-none-eabi/10.3.1/../../../../arm-none-eabi/lib/thumb/v7e-m/nofp\libc_nano.a(lib_a-memset.o)
 .text.memset   0x00000000       0x10 c:/dev/gcc-arm-none-eabi-10.3-2021.10/bin/../lib/gcc/arm-none-eabi/10.3.1/../../../../arm-none-eabi/lib/thumb/v7e-m/nofp\libc_nano.a(lib_a-memset.o)
 .debug_frame   0x00000000       0x20 c:/dev/gcc-arm-none-eabi-10.3-2021.10/bin/../lib/gcc/arm-none-eabi/10.3.1/../../../../arm-none-eabi/lib/thumb/v7e-m/nofp\libc_nano.a(lib_a-memset.o)
 .ARM.attributes
                0x00000000       0x2e c:/dev/gcc-arm-none-eabi-10.3-2021.10/bin/../lib/gcc/arm-none-eabi/10.3.1/../../../../arm-none-eabi/lib/thumb/v7e-m/nofp\libc_nano.a(lib_a-memset.o)
 .text          0x00000000        0x0 CMakeFiles/f401_cmsis.elf.dir/cmsis/src/system_stm32f4xx.c.obj
 .data          0x00000000        0x0 CMakeFiles/f401_cmsis.elf.dir/cmsis/src/system_stm32f4xx.c.obj
 .bss           0x00000000        0x0 CMakeFiles/f401_cmsis.elf.dir/cmsis/src/system_stm32f4xx.c.obj
 .rodata.AHBPrescTable
                0x00000000       0x10 CMakeFiles/f401_cmsis.elf.dir/cmsis/src/system_stm32f4xx.c.obj
 .rodata.APBPrescTable
                0x00000000        0x8 CMakeFiles/f401_cmsis.elf.dir/cmsis/src/system_stm32f4xx.c.obj
 .text.SystemCoreClockUpdate
                0x00000000      0x100 CMakeFiles/f401_cmsis.elf.dir/cmsis/src/system_stm32f4xx.c.obj
 .text          0x00000000        0x0 CMakeFiles/f401_cmsis.elf.dir/core/src/main.c.obj
 .data          0x00000000        0x0 CMakeFiles/f401_cmsis.elf.dir/core/src/main.c.obj
 .bss           0x00000000        0x0 CMakeFiles/f401_cmsis.elf.dir/core/src/main.c.obj
 .text          0x00000000       0x14 CMakeFiles/f401_cmsis.elf.dir/startup_stm32f401xc.s.obj
 .data          0x00000000        0x0 CMakeFiles/f401_cmsis.elf.dir/startup_stm32f401xc.s.obj
 .bss           0x00000000        0x0 CMakeFiles/f401_cmsis.elf.dir/startup_stm32f401xc.s.obj
 .text          0x00000000        0x0 c:/dev/gcc-arm-none-eabi-10.3-2021.10/bin/../lib/gcc/arm-none-eabi/10.3.1/../../../../arm-none-eabi/lib/thumb/v7e-m/nofp\libnosys.a(_exit.o)
 .data          0x00000000        0x0 c:/dev/gcc-arm-none-eabi-10.3-2021.10/bin/../lib/gcc/arm-none-eabi/10.3.1/../../../../arm-none-eabi/lib/thumb/v7e-m/nofp\libnosys.a(_exit.o)
 .bss           0x00000000        0x0 c:/dev/gcc-arm-none-eabi-10.3-2021.10/bin/../lib/gcc/arm-none-eabi/10.3.1/../../../../arm-none-eabi/lib/thumb/v7e-m/nofp\libnosys.a(_exit.o)
 .text._exit    0x00000000        0x4 c:/dev/gcc-arm-none-eabi-10.3-2021.10/bin/../lib/gcc/arm-none-eabi/10.3.1/../../../../arm-none-eabi/lib/thumb/v7e-m/nofp\libnosys.a(_exit.o)
 .debug_frame   0x00000000       0x20 c:/dev/gcc-arm-none-eabi-10.3-2021.10/bin/../lib/gcc/arm-none-eabi/10.3.1/../../../../arm-none-eabi/lib/thumb/v7e-m/nofp\libnosys.a(_exit.o)
 .ARM.attributes
                0x00000000       0x2e c:/dev/gcc-arm-none-eabi-10.3-2021.10/bin/../lib/gcc/arm-none-eabi/10.3.1/../../../../arm-none-eabi/lib/thumb/v7e-m/nofp\libnosys.a(_exit.o)
 .text          0x00000000        0x0 c:/dev/gcc-arm-none-eabi-10.3-2021.10/bin/../lib/gcc/arm-none-eabi/10.3.1/thumb/v7e-m/nofp/crtend.o
 .data          0x00000000        0x0 c:/dev/gcc-arm-none-eabi-10.3-2021.10/bin/../lib/gcc/arm-none-eabi/10.3.1/thumb/v7e-m/nofp/crtend.o
 .bss           0x00000000        0x0 c:/dev/gcc-arm-none-eabi-10.3-2021.10/bin/../lib/gcc/arm-none-eabi/10.3.1/thumb/v7e-m/nofp/crtend.o
 .rodata        0x00000000       0x24 c:/dev/gcc-arm-none-eabi-10.3-2021.10/bin/../lib/gcc/arm-none-eabi/10.3.1/thumb/v7e-m/nofp/crtend.o
 .eh_frame      0x00000000        0x4 c:/dev/gcc-arm-none-eabi-10.3-2021.10/bin/../lib/gcc/arm-none-eabi/10.3.1/thumb/v7e-m/nofp/crtend.o
 .ARM.attributes
                0x00000000       0x2e c:/dev/gcc-arm-none-eabi-10.3-2021.10/bin/../lib/gcc/arm-none-eabi/10.3.1/thumb/v7e-m/nofp/crtend.o
 .text          0x00000000        0x0 c:/dev/gcc-arm-none-eabi-10.3-2021.10/bin/../lib/gcc/arm-none-eabi/10.3.1/thumb/v7e-m/nofp/crtn.o
 .data          0x00000000        0x0 c:/dev/gcc-arm-none-eabi-10.3-2021.10/bin/../lib/gcc/arm-none-eabi/10.3.1/thumb/v7e-m/nofp/crtn.o
 .bss           0x00000000        0x0 c:/dev/gcc-arm-none-eabi-10.3-2021.10/bin/../lib/gcc/arm-none-eabi/10.3.1/thumb/v7e-m/nofp/crtn.o

Memory Configuration

Name             Origin             Length             Attributes
RAM              0x20000000         0x00010000         xrw
ROM              0x08000000         0x00040000         xr
*default*        0x00000000         0xffffffff

Linker script and memory map

LOAD c:/dev/gcc-arm-none-eabi-10.3-2021.10/bin/../lib/gcc/arm-none-eabi/10.3.1/thumb/v7e-m/nofp/crti.o
LOAD c:/dev/gcc-arm-none-eabi-10.3-2021.10/bin/../lib/gcc/arm-none-eabi/10.3.1/thumb/v7e-m/nofp/crtbegin.o
LOAD c:/dev/gcc-arm-none-eabi-10.3-2021.10/bin/../lib/gcc/arm-none-eabi/10.3.1/../../../../arm-none-eabi/lib/thumb/v7e-m/nofp/crt0.o
LOAD c:/dev/gcc-arm-none-eabi-10.3-2021.10/bin/../lib/gcc/arm-none-eabi/10.3.1/../../../../arm-none-eabi/lib/thumb/v7e-m/nofp\libc_nano.a
LOAD c:/dev/gcc-arm-none-eabi-10.3-2021.10/bin/../lib/gcc/arm-none-eabi/10.3.1/../../../../arm-none-eabi/lib/thumb/v7e-m/nofp\libm.a
LOAD CMakeFiles/f401_cmsis.elf.dir/cmsis/src/system_stm32f4xx.c.obj
LOAD CMakeFiles/f401_cmsis.elf.dir/core/src/main.c.obj
LOAD CMakeFiles/f401_cmsis.elf.dir/startup_stm32f401xc.s.obj
START GROUP
LOAD c:/dev/gcc-arm-none-eabi-10.3-2021.10/bin/../lib/gcc/arm-none-eabi/10.3.1/thumb/v7e-m/nofp\libgcc.a
LOAD c:/dev/gcc-arm-none-eabi-10.3-2021.10/bin/../lib/gcc/arm-none-eabi/10.3.1/../../../../arm-none-eabi/lib/thumb/v7e-m/nofp\libg_nano.a
LOAD c:/dev/gcc-arm-none-eabi-10.3-2021.10/bin/../lib/gcc/arm-none-eabi/10.3.1/../../../../arm-none-eabi/lib/thumb/v7e-m/nofp\libc_nano.a
END GROUP
START GROUP
LOAD c:/dev/gcc-arm-none-eabi-10.3-2021.10/bin/../lib/gcc/arm-none-eabi/10.3.1/thumb/v7e-m/nofp\libgcc.a
LOAD c:/dev/gcc-arm-none-eabi-10.3-2021.10/bin/../lib/gcc/arm-none-eabi/10.3.1/../../../../arm-none-eabi/lib/thumb/v7e-m/nofp\libc_nano.a
LOAD c:/dev/gcc-arm-none-eabi-10.3-2021.10/bin/../lib/gcc/arm-none-eabi/10.3.1/../../../../arm-none-eabi/lib/thumb/v7e-m/nofp\libnosys.a
END GROUP
START GROUP
LOAD c:/dev/gcc-arm-none-eabi-10.3-2021.10/bin/../lib/gcc/arm-none-eabi/10.3.1/thumb/v7e-m/nofp\libgcc.a
LOAD c:/dev/gcc-arm-none-eabi-10.3-2021.10/bin/../lib/gcc/arm-none-eabi/10.3.1/../../../../arm-none-eabi/lib/thumb/v7e-m/nofp\libc_nano.a
LOAD c:/dev/gcc-arm-none-eabi-10.3-2021.10/bin/../lib/gcc/arm-none-eabi/10.3.1/../../../../arm-none-eabi/lib/thumb/v7e-m/nofp\libnosys.a
END GROUP
LOAD c:/dev/gcc-arm-none-eabi-10.3-2021.10/bin/../lib/gcc/arm-none-eabi/10.3.1/thumb/v7e-m/nofp/crtend.o
LOAD c:/dev/gcc-arm-none-eabi-10.3-2021.10/bin/../lib/gcc/arm-none-eabi/10.3.1/thumb/v7e-m/nofp/crtn.o
                0x20010000                _estack = (ORIGIN (RAM) + LENGTH (RAM))
                0x00000200                _Min_Heap_Size = 0x200
                0x00000400                _Min_Stack_Size = 0x400

.isr_vector     0x08000000      0x194
                0x08000000                . = ALIGN (0x4)
 *(.isr_vector)
 .isr_vector    0x08000000      0x194 CMakeFiles/f401_cmsis.elf.dir/startup_stm32f401xc.s.obj
                0x08000000                g_pfnVectors
                0x08000194                . = ALIGN (0x4)

.text           0x08000194      0x358
                0x08000194                . = ALIGN (0x4)
 *(.text)
 .text          0x08000194       0x40 c:/dev/gcc-arm-none-eabi-10.3-2021.10/bin/../lib/gcc/arm-none-eabi/10.3.1/thumb/v7e-m/nofp/crtbegin.o
 *(.text*)
 .text.__libc_init_array
                0x080001d4       0x48 c:/dev/gcc-arm-none-eabi-10.3-2021.10/bin/../lib/gcc/arm-none-eabi/10.3.1/../../../../arm-none-eabi/lib/thumb/v7e-m/nofp\libc_nano.a(lib_a-init.o)
                0x080001d4                __libc_init_array
 .text.SystemInit
                0x0800021c        0xc CMakeFiles/f401_cmsis.elf.dir/cmsis/src/system_stm32f4xx.c.obj
                0x0800021c                SystemInit
 .text.__NVIC_SetPriority
                0x08000228       0x54 CMakeFiles/f401_cmsis.elf.dir/core/src/main.c.obj
 .text.SysTick_Config
                0x0800027c       0x44 CMakeFiles/f401_cmsis.elf.dir/core/src/main.c.obj
 .text.SysTick_Handler
                0x080002c0       0x1c CMakeFiles/f401_cmsis.elf.dir/core/src/main.c.obj
                0x080002c0                SysTick_Handler
 .text.init_clock
                0x080002dc       0xd8 CMakeFiles/f401_cmsis.elf.dir/core/src/main.c.obj
 .text.init_gpio
                0x080003b4       0x68 CMakeFiles/f401_cmsis.elf.dir/core/src/main.c.obj
 .text.delay    0x0800041c       0x28 CMakeFiles/f401_cmsis.elf.dir/core/src/main.c.obj
 .text.main     0x08000444       0x3c CMakeFiles/f401_cmsis.elf.dir/core/src/main.c.obj
                0x08000444                main
 .text.Reset_Handler
                0x08000480       0x50 CMakeFiles/f401_cmsis.elf.dir/startup_stm32f401xc.s.obj
                0x08000480                Reset_Handler
 .text.Default_Handler
                0x080004d0        0x2 CMakeFiles/f401_cmsis.elf.dir/startup_stm32f401xc.s.obj
                0x080004d0                RTC_Alarm_IRQHandler
                0x080004d0                EXTI2_IRQHandler
                0x080004d0                DebugMon_Handler
                0x080004d0                SPI4_IRQHandler
                0x080004d0                TIM1_CC_IRQHandler
                0x080004d0                DMA2_Stream5_IRQHandler
                0x080004d0                HardFault_Handler
                0x080004d0                DMA1_Stream5_IRQHandler
                0x080004d0                PVD_IRQHandler
                0x080004d0                SDIO_IRQHandler
                0x080004d0                TAMP_STAMP_IRQHandler
                0x080004d0                PendSV_Handler
                0x080004d0                NMI_Handler
                0x080004d0                EXTI3_IRQHandler
                0x080004d0                TIM1_UP_TIM10_IRQHandler
                0x080004d0                I2C3_ER_IRQHandler
                0x080004d0                EXTI0_IRQHandler
                0x080004d0                I2C2_EV_IRQHandler
                0x080004d0                DMA1_Stream2_IRQHandler
                0x080004d0                FPU_IRQHandler
                0x080004d0                UsageFault_Handler
                0x080004d0                DMA2_Stream2_IRQHandler
                0x080004d0                SPI1_IRQHandler
                0x080004d0                TIM1_BRK_TIM9_IRQHandler
                0x080004d0                DMA2_Stream3_IRQHandler
                0x080004d0                USART6_IRQHandler
                0x080004d0                DMA2_Stream0_IRQHandler
                0x080004d0                TIM4_IRQHandler
                0x080004d0                I2C1_EV_IRQHandler
                0x080004d0                DMA1_Stream6_IRQHandler
                0x080004d0                DMA1_Stream1_IRQHandler
                0x080004d0                TIM3_IRQHandler
                0x080004d0                RCC_IRQHandler
                0x080004d0                Default_Handler
                0x080004d0                EXTI15_10_IRQHandler
                0x080004d0                ADC_IRQHandler
                0x080004d0                DMA1_Stream7_IRQHandler
                0x080004d0                TIM5_IRQHandler
                0x080004d0                DMA2_Stream7_IRQHandler
                0x080004d0                I2C3_EV_IRQHandler
                0x080004d0                EXTI9_5_IRQHandler
                0x080004d0                RTC_WKUP_IRQHandler
                0x080004d0                SPI2_IRQHandler
                0x080004d0                MemManage_Handler
                0x080004d0                DMA1_Stream0_IRQHandler
                0x080004d0                SVC_Handler
                0x080004d0                EXTI4_IRQHandler
                0x080004d0                WWDG_IRQHandler
                0x080004d0                TIM2_IRQHandler
                0x080004d0                OTG_FS_WKUP_IRQHandler
                0x080004d0                TIM1_TRG_COM_TIM11_IRQHandler
                0x080004d0                EXTI1_IRQHandler
                0x080004d0                USART2_IRQHandler
                0x080004d0                I2C2_ER_IRQHandler
                0x080004d0                DMA2_Stream1_IRQHandler
                0x080004d0                FLASH_IRQHandler
                0x080004d0                DMA2_Stream4_IRQHandler
                0x080004d0                BusFault_Handler
                0x080004d0                USART1_IRQHandler
                0x080004d0                OTG_FS_IRQHandler
                0x080004d0                SPI3_IRQHandler
                0x080004d0                DMA1_Stream4_IRQHandler
                0x080004d0                I2C1_ER_IRQHandler
                0x080004d0                DMA2_Stream6_IRQHandler
                0x080004d0                DMA1_Stream3_IRQHandler
 *(.glue_7)
 .glue_7        0x080004d2        0x0 linker stubs
 *(.glue_7t)
 .glue_7t       0x080004d2        0x0 linker stubs
 *(.eh_frame)
 *fill*         0x080004d2        0x2 
 .eh_frame      0x080004d4        0x0 c:/dev/gcc-arm-none-eabi-10.3-2021.10/bin/../lib/gcc/arm-none-eabi/10.3.1/thumb/v7e-m/nofp/crtbegin.o
 *(.init)
 .init          0x080004d4        0x4 c:/dev/gcc-arm-none-eabi-10.3-2021.10/bin/../lib/gcc/arm-none-eabi/10.3.1/thumb/v7e-m/nofp/crti.o
                0x080004d4                _init
 .init          0x080004d8        0x8 c:/dev/gcc-arm-none-eabi-10.3-2021.10/bin/../lib/gcc/arm-none-eabi/10.3.1/thumb/v7e-m/nofp/crtn.o
 *(.fini)
 .fini          0x080004e0        0x4 c:/dev/gcc-arm-none-eabi-10.3-2021.10/bin/../lib/gcc/arm-none-eabi/10.3.1/thumb/v7e-m/nofp/crti.o
                0x080004e0                _fini
 .fini          0x080004e4        0x8 c:/dev/gcc-arm-none-eabi-10.3-2021.10/bin/../lib/gcc/arm-none-eabi/10.3.1/thumb/v7e-m/nofp/crtn.o
                0x080004ec                . = ALIGN (0x4)
                0x080004ec                _etext = .

.vfp11_veneer   0x080004ec        0x0
 .vfp11_veneer  0x080004ec        0x0 linker stubs

.v4_bx          0x080004ec        0x0
 .v4_bx         0x080004ec        0x0 linker stubs

.iplt           0x080004ec        0x0
 .iplt          0x080004ec        0x0 c:/dev/gcc-arm-none-eabi-10.3-2021.10/bin/../lib/gcc/arm-none-eabi/10.3.1/thumb/v7e-m/nofp/crtbegin.o

.rel.dyn        0x080004ec        0x0
 .rel.iplt      0x080004ec        0x0 c:/dev/gcc-arm-none-eabi-10.3-2021.10/bin/../lib/gcc/arm-none-eabi/10.3.1/thumb/v7e-m/nofp/crtbegin.o

.rodata         0x080004ec        0x0
                0x080004ec                . = ALIGN (0x4)
 *(.rodata)
 *(.rodata*)
                0x080004ec                . = ALIGN (0x4)

.ARM.extab      0x080004ec        0x0
                0x080004ec                . = ALIGN (0x4)
 *(.ARM.extab* .gnu.linkonce.armextab.*)
                0x080004ec                . = ALIGN (0x4)

.ARM            0x080004ec        0x0
                0x080004ec                . = ALIGN (0x4)
                0x080004ec                __exidx_start = .
 *(.ARM.exidx*)
                0x080004ec                __exidx_end = .
                0x080004ec                . = ALIGN (0x4)

.preinit_array  0x080004ec        0x0
                0x080004ec                . = ALIGN (0x4)
                0x080004ec                PROVIDE (__preinit_array_start = .)
 *(.preinit_array*)
                0x080004ec                PROVIDE (__preinit_array_end = .)
                0x080004ec                . = ALIGN (0x4)

.init_array     0x080004ec        0x4
                0x080004ec                . = ALIGN (0x4)
                0x080004ec                PROVIDE (__init_array_start = .)
 *(SORT_BY_NAME(.init_array.*))
 *(.init_array*)
 .init_array    0x080004ec        0x4 c:/dev/gcc-arm-none-eabi-10.3-2021.10/bin/../lib/gcc/arm-none-eabi/10.3.1/thumb/v7e-m/nofp/crtbegin.o
                0x080004f0                PROVIDE (__init_array_end = .)
                0x080004f0                . = ALIGN (0x4)

.fini_array     0x080004f0        0x4
                0x080004f0                . = ALIGN (0x4)
                [!provide]                PROVIDE (__fini_array_start = .)
 *(SORT_BY_NAME(.fini_array.*))
 *(.fini_array*)
 .fini_array    0x080004f0        0x4 c:/dev/gcc-arm-none-eabi-10.3-2021.10/bin/../lib/gcc/arm-none-eabi/10.3.1/thumb/v7e-m/nofp/crtbegin.o
                [!provide]                PROVIDE (__fini_array_end = .)
                0x080004f4                . = ALIGN (0x4)
                0x080004f4                _sidata = LOADADDR (.data)

.data           0x20000000        0x4 load address 0x080004f4
                0x20000000                . = ALIGN (0x4)
                0x20000000                _sdata = .
 *(.data)
 *(.data*)
 .data.SystemCoreClock
                0x20000000        0x4 CMakeFiles/f401_cmsis.elf.dir/cmsis/src/system_stm32f4xx.c.obj
                0x20000000                SystemCoreClock
 *(.RamFunc)
 *(.RamFunc*)
                0x20000004                . = ALIGN (0x4)
                0x20000004                _edata = .

.igot.plt       0x20000004        0x0 load address 0x080004f8
 .igot.plt      0x20000004        0x0 c:/dev/gcc-arm-none-eabi-10.3-2021.10/bin/../lib/gcc/arm-none-eabi/10.3.1/thumb/v7e-m/nofp/crtbegin.o
                0x20000004                . = ALIGN (0x4)

.bss            0x20000004       0x20 load address 0x080004f8
                0x20000004                _sbss = .
                0x20000004                __bss_start__ = _sbss
 *(.bss)
 .bss           0x20000004       0x1c c:/dev/gcc-arm-none-eabi-10.3-2021.10/bin/../lib/gcc/arm-none-eabi/10.3.1/thumb/v7e-m/nofp/crtbegin.o
 *(.bss*)
 .bss.delayTimerValue
                0x20000020        0x4 CMakeFiles/f401_cmsis.elf.dir/core/src/main.c.obj
                0x20000020                delayTimerValue
 *(COMMON)
                0x20000024                . = ALIGN (0x4)
                0x20000024                _ebss = .
                0x20000024                __bss_end__ = _ebss

._user_heap_stack
                0x20000024      0x604 load address 0x080004f8
                0x20000028                . = ALIGN (0x8)
 *fill*         0x20000024        0x4 
                [!provide]                PROVIDE (end = .)
                [!provide]                PROVIDE (_end = .)
                0x20000228                . = (. + _Min_Heap_Size)
 *fill*         0x20000028      0x200 
                0x20000628                . = (. + _Min_Stack_Size)
 *fill*         0x20000228      0x400 
                0x20000628                . = ALIGN (0x8)

/DISCARD/
 libc.a(*)
 libm.a(*)
 libgcc.a(*)

.ARM.attributes
                0x00000000       0x2a
 *(.ARM.attributes)
 .ARM.attributes
                0x00000000       0x1e c:/dev/gcc-arm-none-eabi-10.3-2021.10/bin/../lib/gcc/arm-none-eabi/10.3.1/thumb/v7e-m/nofp/crti.o
 .ARM.attributes
                0x0000001e       0x2e c:/dev/gcc-arm-none-eabi-10.3-2021.10/bin/../lib/gcc/arm-none-eabi/10.3.1/thumb/v7e-m/nofp/crtbegin.o
 .ARM.attributes
                0x0000004c       0x2e c:/dev/gcc-arm-none-eabi-10.3-2021.10/bin/../lib/gcc/arm-none-eabi/10.3.1/../../../../arm-none-eabi/lib/thumb/v7e-m/nofp\libc_nano.a(lib_a-init.o)
 .ARM.attributes
                0x0000007a       0x2e CMakeFiles/f401_cmsis.elf.dir/cmsis/src/system_stm32f4xx.c.obj
 .ARM.attributes
                0x000000a8       0x2e CMakeFiles/f401_cmsis.elf.dir/core/src/main.c.obj
 .ARM.attributes
                0x000000d6       0x21 CMakeFiles/f401_cmsis.elf.dir/startup_stm32f401xc.s.obj
 .ARM.attributes
                0x000000f7       0x1e c:/dev/gcc-arm-none-eabi-10.3-2021.10/bin/../lib/gcc/arm-none-eabi/10.3.1/thumb/v7e-m/nofp/crtn.o
OUTPUT(f401_cmsis.elf elf32-littlearm)
LOAD linker stubs
LOAD c:/dev/gcc-arm-none-eabi-10.3-2021.10/bin/../lib/gcc/arm-none-eabi/10.3.1/../../../../arm-none-eabi/lib/thumb/v7e-m/nofp\libc.a
LOAD c:/dev/gcc-arm-none-eabi-10.3-2021.10/bin/../lib/gcc/arm-none-eabi/10.3.1/../../../../arm-none-eabi/lib/thumb/v7e-m/nofp\libm.a
LOAD c:/dev/gcc-arm-none-eabi-10.3-2021.10/bin/../lib/gcc/arm-none-eabi/10.3.1/thumb/v7e-m/nofp\libgcc.a

.debug_frame    0x00000000      0x180
 .debug_frame   0x00000000       0x2c c:/dev/gcc-arm-none-eabi-10.3-2021.10/bin/../lib/gcc/arm-none-eabi/10.3.1/../../../../arm-none-eabi/lib/thumb/v7e-m/nofp\libc_nano.a(lib_a-init.o)
 .debug_frame   0x0000002c       0x58 CMakeFiles/f401_cmsis.elf.dir/cmsis/src/system_stm32f4xx.c.obj
 .debug_frame   0x00000084       0xfc CMakeFiles/f401_cmsis.elf.dir/core/src/main.c.obj

.debug_info     0x00000000      0xd40
 .debug_info    0x00000000      0x389 CMakeFiles/f401_cmsis.elf.dir/cmsis/src/system_stm32f4xx.c.obj
 .debug_info    0x00000389      0x995 CMakeFiles/f401_cmsis.elf.dir/core/src/main.c.obj
 .debug_info    0x00000d1e       0x22 CMakeFiles/f401_cmsis.elf.dir/startup_stm32f401xc.s.obj

.debug_abbrev   0x00000000      0x34a
 .debug_abbrev  0x00000000      0x113 CMakeFiles/f401_cmsis.elf.dir/cmsis/src/system_stm32f4xx.c.obj
 .debug_abbrev  0x00000113      0x225 CMakeFiles/f401_cmsis.elf.dir/core/src/main.c.obj
 .debug_abbrev  0x00000338       0x12 CMakeFiles/f401_cmsis.elf.dir/startup_stm32f401xc.s.obj

.debug_aranges  0x00000000       0xa0
 .debug_aranges
                0x00000000       0x28 CMakeFiles/f401_cmsis.elf.dir/cmsis/src/system_stm32f4xx.c.obj
 .debug_aranges
                0x00000028       0x50 CMakeFiles/f401_cmsis.elf.dir/core/src/main.c.obj
 .debug_aranges
                0x00000078       0x28 CMakeFiles/f401_cmsis.elf.dir/startup_stm32f401xc.s.obj

.debug_ranges   0x00000000       0x78
 .debug_ranges  0x00000000       0x18 CMakeFiles/f401_cmsis.elf.dir/cmsis/src/system_stm32f4xx.c.obj
 .debug_ranges  0x00000018       0x40 CMakeFiles/f401_cmsis.elf.dir/core/src/main.c.obj
 .debug_ranges  0x00000058       0x20 CMakeFiles/f401_cmsis.elf.dir/startup_stm32f401xc.s.obj

.debug_line     0x00000000      0x54e
 .debug_line    0x00000000      0x1e7 CMakeFiles/f401_cmsis.elf.dir/cmsis/src/system_stm32f4xx.c.obj
 .debug_line    0x000001e7      0x2d7 CMakeFiles/f401_cmsis.elf.dir/core/src/main.c.obj
 .debug_line    0x000004be       0x90 CMakeFiles/f401_cmsis.elf.dir/startup_stm32f401xc.s.obj

.debug_str      0x00000000      0x856
 .debug_str     0x00000000      0x2ef CMakeFiles/f401_cmsis.elf.dir/cmsis/src/system_stm32f4xx.c.obj
                                0x339 (size before relaxing)
 .debug_str     0x000002ef      0x529 CMakeFiles/f401_cmsis.elf.dir/core/src/main.c.obj
                                0x7e5 (size before relaxing)
 .debug_str     0x00000818       0x3e CMakeFiles/f401_cmsis.elf.dir/startup_stm32f401xc.s.obj
                                 0x5e (size before relaxing)

.comment        0x00000000       0x49
 .comment       0x00000000       0x49 CMakeFiles/f401_cmsis.elf.dir/cmsis/src/system_stm32f4xx.c.obj
                                 0x4a (size before relaxing)
 .comment       0x00000049       0x4a CMakeFiles/f401_cmsis.elf.dir/core/src/main.c.obj
